; Function Attrs: nounwind uwtable
define ptr @l_Lean_Environment_Replay_throwKernelException(ptr noundef %0, ptr readnone captures(none) %1, ptr readnone captures(none) %2, ptr noundef %3) local_unnamed_addr #0 {
  %5 = tail call ptr @l_Lean_Kernel_Exception_toMessageData(ptr noundef %0, ptr noundef nonnull inttoptr (i64 1 to ptr)) #5
  %6 = tail call ptr @l_Lean_MessageData_toString(ptr noundef %5, ptr noundef %3) #5
  %.val = load i32, ptr %6, align 4, !tbaa !4
  %7 = icmp eq i32 %.val, 1
  %8 = getelementptr inbounds nuw i8, ptr %6, i64 8
  %9 = load ptr, ptr %8, align 8, !tbaa !9
  br i1 %7, label %10, label %20

10:                                               ; preds = %4
  tail call void @lean_inc_heartbeat() #5
  %11 = tail call noalias ptr @mi_malloc_small(i64 noundef 16) #5
  %12 = icmp eq ptr %11, null
  br i1 %12, label %13, label %lean_alloc_ctor.exit

13:                                               ; preds = %10
  tail call void @lean_internal_panic_out_of_memory() #6
  unreachable

lean_alloc_ctor.exit:                             ; preds = %10
  %14 = getelementptr inbounds nuw i8, ptr %11, i64 4
  store i32 1, ptr %11, align 4, !tbaa !4
  store i32 302055440, ptr %14, align 4
  %15 = getelementptr inbounds nuw i8, ptr %11, i64 8
  store ptr %9, ptr %15, align 8, !tbaa !9
  %16 = getelementptr inbounds nuw i8, ptr %6, i64 4
  %17 = load i32, ptr %16, align 4
  %18 = and i32 %17, 16777215
  %19 = or disjoint i32 %18, 16777216
  store i32 %19, ptr %16, align 4
  store ptr %11, ptr %8, align 8, !tbaa !9
  br label %59

20:                                               ; preds = %4
  %21 = getelementptr inbounds nuw i8, ptr %6, i64 16
  %22 = load ptr, ptr %21, align 8, !tbaa !9
  %23 = ptrtoint ptr %22 to i64
  %24 = and i64 %23, 1
  %.not = icmp eq i64 %24, 0
  br i1 %.not, label %25, label %lean_inc.exit25

25:                                               ; preds = %20
  %.val.i = load i32, ptr %22, align 4, !tbaa !4
  %26 = icmp sgt i32 %.val.i, 0
  br i1 %26, label %27, label %29, !prof !12

27:                                               ; preds = %25
  %28 = add nuw i32 %.val.i, 1
  store i32 %28, ptr %22, align 4, !tbaa !4
  br label %lean_inc.exit25

29:                                               ; preds = %25
  %.not.i26 = icmp eq i32 %.val.i, 0
  br i1 %.not.i26, label %lean_inc.exit25, label %30

30:                                               ; preds = %29
  tail call void @lean_inc_ref_cold(ptr noundef nonnull %22) #5
  br label %lean_inc.exit25

lean_inc.exit25:                                  ; preds = %30, %29, %27, %20
  %31 = ptrtoint ptr %9 to i64
  %32 = and i64 %31, 1
  %.not32 = icmp eq i64 %32, 0
  br i1 %.not32, label %33, label %lean_inc.exit

33:                                               ; preds = %lean_inc.exit25
  %.val.i27 = load i32, ptr %9, align 4, !tbaa !4
  %34 = icmp sgt i32 %.val.i27, 0
  br i1 %34, label %35, label %37, !prof !12

35:                                               ; preds = %33
  %36 = add nuw i32 %.val.i27, 1
  store i32 %36, ptr %9, align 4, !tbaa !4
  br label %lean_inc.exit

37:                                               ; preds = %33
  %.not.i28 = icmp eq i32 %.val.i27, 0
  br i1 %.not.i28, label %lean_inc.exit, label %38

38:                                               ; preds = %37
  tail call void @lean_inc_ref_cold(ptr noundef nonnull %9) #5
  br label %lean_inc.exit

lean_inc.exit:                                    ; preds = %38, %37, %35, %lean_inc.exit25
  %39 = ptrtoint ptr %6 to i64
  %40 = and i64 %39, 1
  %.not33 = icmp eq i64 %40, 0
  br i1 %.not33, label %41, label %lean_dec.exit

41:                                               ; preds = %lean_inc.exit
  %42 = load i32, ptr %6, align 4, !tbaa !4
  %43 = icmp sgt i32 %42, 1
  br i1 %43, label %44, label %46, !prof !12

44:                                               ; preds = %41
  %45 = add nsw i32 %42, -1
  store i32 %45, ptr %6, align 4, !tbaa !4
  br label %lean_dec.exit

46:                                               ; preds = %41
  %.not.i = icmp eq i32 %42, 0
  br i1 %.not.i, label %lean_dec.exit, label %47

47:                                               ; preds = %46
  tail call void @lean_dec_ref_cold(ptr noundef nonnull %6) #5
  br label %lean_dec.exit

lean_dec.exit:                                    ; preds = %47, %46, %44, %lean_inc.exit
  tail call void @lean_inc_heartbeat() #5
  %48 = tail call noalias ptr @mi_malloc_small(i64 noundef 16) #5
  %49 = icmp eq ptr %48, null
  br i1 %49, label %50, label %lean_alloc_ctor.exit30

50:                                               ; preds = %lean_dec.exit
  tail call void @lean_internal_panic_out_of_memory() #6
  unreachable

lean_alloc_ctor.exit30:                           ; preds = %lean_dec.exit
  %51 = getelementptr inbounds nuw i8, ptr %48, i64 4
  store i32 1, ptr %48, align 4, !tbaa !4
  store i32 302055440, ptr %51, align 4
  %52 = getelementptr inbounds nuw i8, ptr %48, i64 8
  store ptr %9, ptr %52, align 8, !tbaa !9
  tail call void @lean_inc_heartbeat() #5
  %53 = tail call noalias ptr @mi_malloc_small(i64 noundef 24) #5
  %54 = icmp eq ptr %53, null
  br i1 %54, label %55, label %lean_alloc_ctor.exit31

55:                                               ; preds = %lean_alloc_ctor.exit30
  tail call void @lean_internal_panic_out_of_memory() #6
  unreachable

lean_alloc_ctor.exit31:                           ; preds = %lean_alloc_ctor.exit30
  %56 = getelementptr inbounds nuw i8, ptr %53, i64 4
  store i32 1, ptr %53, align 4, !tbaa !4
  store i32 16908312, ptr %56, align 4
  %57 = getelementptr inbounds nuw i8, ptr %53, i64 8
  store ptr %48, ptr %57, align 8, !tbaa !9
  %58 = getelementptr inbounds nuw i8, ptr %53, i64 16
  store ptr %22, ptr %58, align 8, !tbaa !9
  br label %59

59:                                               ; preds = %lean_alloc_ctor.exit31, %lean_alloc_ctor.exit
  %.0 = phi ptr [ %6, %lean_alloc_ctor.exit ], [ %53, %lean_alloc_ctor.exit31 ]
  ret ptr %.0
}